Certificate:
    Data:
        Version: 3 (0x2)
        Serial Number:
            c8:72:3a:16:27:7c:01:69:9e:c4:d6:59:86:04:b5:51
        Signature Algorithm: sha256WithRSAEncryption
        Issuer: CN=Weber
        Validity
            Not Before: Feb  2 11:21:46 2019 GMT
            Not After : Jan 17 11:21:46 2022 GMT
        Subject: CN=seznam.cz
        Subject Public Key Info:
            Public Key Algorithm: rsaEncryption
                RSA Public-Key: (2048 bit)
                Modulus:
                    00:bd:d5:a5:1d:2b:e5:7e:75:aa:55:73:b4:76:3d:
                    9a:91:b7:6f:df:45:09:f5:62:1f:a4:0a:c4:8c:cd:
                    72:e8:24:46:d9:55:67:b9:e3:f6:d5:d0:c2:44:bb:
                    d2:8e:70:1f:1b:02:49:50:0b:f5:e5:4f:12:fe:8a:
                    db:fd:12:fa:70:09:e1:7e:9b:45:41:d2:2a:20:58:
                    5f:ca:70:0f:47:03:a7:46:e4:a0:3d:b2:c8:b4:86:
                    12:44:17:52:92:3c:a5:31:c2:1e:bc:52:d1:15:aa:
                    e3:0c:7d:18:f2:84:6d:d5:ac:fb:5c:31:4a:93:7d:
                    f9:c9:cf:d4:b8:09:63:08:23:36:9c:6c:89:8c:4e:
                    8b:c7:82:a8:a2:1a:c2:4f:ee:2a:ab:0b:af:d0:32:
                    fb:37:00:d6:1a:e4:ac:02:53:e9:2b:7f:db:c2:c8:
                    ab:9f:a8:76:a1:30:20:4e:29:26:0e:fb:7f:ec:9d:
                    be:68:df:d3:d3:0b:0e:59:14:af:82:c9:76:b8:30:
                    c8:cb:cb:ea:55:88:ff:f2:50:58:bd:2b:32:3c:ef:
                    83:9d:3f:84:6c:9c:16:37:85:5f:8d:15:bf:45:bb:
                    27:87:0f:b7:03:e5:1f:31:bc:63:4d:55:75:1f:d2:
                    41:27:e8:29:fc:ce:f8:cd:b2:bc:04:31:c6:dc:8b:
                    8d:d1
                Exponent: 65537 (0x10001)
        X509v3 extensions:
            X509v3 Basic Constraints: 
                CA:FALSE
            X509v3 Subject Key Identifier: 
                35:A2:BC:35:50:CD:02:49:A0:55:EB:38:E7:55:D2:32:0E:CA:67:6A
            X509v3 Authority Key Identifier: 
                keyid:F8:89:46:8C:C6:60:6D:88:D9:AE:20:A1:C6:40:D8:C2:84:FC:A5:5B
                DirName:/CN=Weber
                serial:07:6F:47:E9:4D:C5:C5:11:3B:F3:83:55:76:8B:88:AD:13:9D:82:BC

            X509v3 Extended Key Usage: 
                TLS Web Server Authentication
            X509v3 Key Usage: 
                Digital Signature, Key Encipherment
            X509v3 Subject Alternative Name: 
                DNS:seznam.cz
    Signature Algorithm: sha256WithRSAEncryption
         87:2d:f9:c5:21:c6:0f:0d:12:a1:d9:6f:fa:fc:dc:5a:39:b0:
         84:cc:49:88:1e:ce:d3:f8:5b:91:55:4b:4d:cc:f8:34:f8:c2:
         f4:9d:49:9c:72:19:7f:78:1b:24:53:d0:80:3a:5c:25:c9:cf:
         86:11:96:16:04:f5:f8:ab:d7:b8:f2:a2:b5:82:29:f2:fc:96:
         22:43:94:68:15:6c:63:61:73:fc:e0:0b:b3:d2:80:2f:6e:18:
         75:fe:eb:c4:12:65:b1:06:5e:4f:68:4d:73:87:6f:21:9c:43:
         f6:b2:62:d6:df:6e:e6:da:71:e2:9b:41:8b:e0:4f:00:8c:8e:
         67:74:87:c2:44:49:33:7c:1c:7f:ae:0a:0d:f3:07:67:c2:b7:
         99:73:f0:45:6d:f7:ca:47:b6:8f:69:91:bf:62:b3:01:7a:77:
         9a:3a:41:6d:c5:f5:9d:bb:5d:03:ff:1a:80:b7:1b:69:1b:6f:
         3c:a1:d9:4f:10:57:c9:51:ee:2d:9a:1c:91:96:d0:f5:ea:13:
         50:ae:35:e9:cf:5c:55:f0:ea:7c:4f:5e:03:cf:8b:06:2b:ca:
         cf:48:27:1b:f6:35:df:6b:7d:5a:3a:68:25:df:cc:bc:c2:3a:
         34:1e:2c:da:ed:d8:db:43:de:1f:db:fe:df:5f:ba:44:b9:52:
         64:37:66:e8
-----BEGIN CERTIFICATE-----
MIIDYjCCAkqgAwIBAgIRAMhyOhYnfAFpnsTWWYYEtVEwDQYJKoZIhvcNAQELBQAw
EDEOMAwGA1UEAwwFV2ViZXIwHhcNMTkwMjAyMTEyMTQ2WhcNMjIwMTE3MTEyMTQ2
WjAUMRIwEAYDVQQDDAlzZXpuYW0uY3owggEiMA0GCSqGSIb3DQEBAQUAA4IBDwAw
ggEKAoIBAQC91aUdK+V+dapVc7R2PZqRt2/fRQn1Yh+kCsSMzXLoJEbZVWe54/bV
0MJEu9KOcB8bAklQC/XlTxL+itv9EvpwCeF+m0VB0iogWF/KcA9HA6dG5KA9ssi0
hhJEF1KSPKUxwh68UtEVquMMfRjyhG3VrPtcMUqTffnJz9S4CWMIIzacbImMTovH
gqiiGsJP7iqrC6/QMvs3ANYa5KwCU+krf9vCyKufqHahMCBOKSYO+3/snb5o39PT
Cw5ZFK+CyXa4MMjLy+pViP/yUFi9KzI874OdP4RsnBY3hV+NFb9FuyeHD7cD5R8x
vGNNVXUf0kEn6Cn8zvjNsrwEMcbci43RAgMBAAGjgbIwga8wCQYDVR0TBAIwADAd
BgNVHQ4EFgQUNaK8NVDNAkmgVes451XSMg7KZ2owSwYDVR0jBEQwQoAU+IlGjMZg
bYjZriChxkDYwoT8pVuhFKQSMBAxDjAMBgNVBAMMBVdlYmVyghQHb0fpTcXFETvz
g1V2i4itE52CvDATBgNVHSUEDDAKBggrBgEFBQcDATALBgNVHQ8EBAMCBaAwFAYD
VR0RBA0wC4IJc2V6bmFtLmN6MA0GCSqGSIb3DQEBCwUAA4IBAQCHLfnFIcYPDRKh
2W/6/NxaObCEzEmIHs7T+FuRVUtNzPg0+ML0nUmcchl/eBskU9CAOlwlyc+GEZYW
BPX4q9e48qK1giny/JYiQ5RoFWxjYXP84Auz0oAvbhh1/uvEEmWxBl5PaE1zh28h
nEP2smLW327m2nHim0GL4E8AjI5ndIfCREkzfBx/rgoN8wdnwreZc/BFbffKR7aP
aZG/YrMBeneaOkFtxfWdu10D/xqAtxtpG288odlPEFfJUe4tmhyRltD16hNQrjXp
z1xV8Op8T14Dz4sGK8rPSCcb9jXfa31aOmgl38y8wjo0Hiza7djbQ94f2/7fX7pE
uVJkN2bo
-----END CERTIFICATE-----
